; Function Attrs: nounwind uwtable
define dso_local i32 @archive_entry_sparse_reset(ptr noundef initializes((1152, 1160)) %0) local_unnamed_addr #0 {
  %2 = getelementptr inbounds nuw i8, ptr %0, i64 1136
  %3 = load ptr, ptr %2, align 8, !tbaa !30
  %4 = getelementptr inbounds nuw i8, ptr %0, i64 1152
  store ptr %3, ptr %4, align 8, !tbaa !32
  %.not.i3 = icmp eq ptr %3, null
  br i1 %.not.i3, label %archive_entry_sparse_count.exit, label %thread-pre-split, !llvm.loop !31

thread-pre-split:                                 ; preds = %1, %thread-pre-split
  %.0.i5 = phi i32 [ %5, %thread-pre-split ], [ 0, %1 ]
  %.010.i4 = phi ptr [ %.010.i.pr, %thread-pre-split ], [ %3, %1 ]
  %5 = add nuw nsw i32 %.0.i5, 1
  %.010.i.pr = load ptr, ptr %.010.i4, align 8, !tbaa !30
  %.not.i = icmp eq ptr %.010.i.pr, null
  br i1 %.not.i, label %._crit_edge, label %thread-pre-split, !llvm.loop !31

._crit_edge:                                      ; preds = %thread-pre-split
  %6 = icmp eq i32 %.0.i5, 0
  br i1 %6, label %7, label %archive_entry_sparse_count.exit

7:                                                ; preds = %._crit_edge
  %8 = getelementptr inbounds nuw i8, ptr %3, i64 8
  %9 = load i64, ptr %8, align 8, !tbaa !28
  %10 = icmp eq i64 %9, 0
  br i1 %10, label %11, label %archive_entry_sparse_count.exit

11:                                               ; preds = %7
  %12 = getelementptr inbounds nuw i8, ptr %3, i64 16
  %13 = load i64, ptr %12, align 8, !tbaa !29
  %14 = tail call i64 @archive_entry_size(ptr noundef nonnull %0) #5
  %.not11.i = icmp slt i64 %13, %14
  br i1 %.not11.i, label %archive_entry_sparse_count.exit, label %15

15:                                               ; preds = %11
  %16 = load ptr, ptr %2, align 8, !tbaa !4
  %.not6.i.i = icmp eq ptr %16, null
  br i1 %.not6.i.i, label %archive_entry_sparse_clear.exit.i, label %.lr.ph.i.i

.lr.ph.i.i:                                       ; preds = %15, %.lr.ph.i.i
  %17 = phi ptr [ %18, %.lr.ph.i.i ], [ %16, %15 ]
  %18 = load ptr, ptr %17, align 8, !tbaa !23
  tail call void @free(ptr noundef nonnull %17) #5
  store ptr %18, ptr %2, align 8, !tbaa !4
  %.not.i.i = icmp eq ptr %18, null
  br i1 %.not.i.i, label %archive_entry_sparse_clear.exit.i, label %.lr.ph.i.i, !llvm.loop !25

archive_entry_sparse_clear.exit.i:                ; preds = %.lr.ph.i.i, %15
  %19 = getelementptr inbounds nuw i8, ptr %0, i64 1144
  store ptr null, ptr %19, align 8, !tbaa !27
  br label %archive_entry_sparse_count.exit

archive_entry_sparse_count.exit:                  ; preds = %1, %._crit_edge, %7, %11, %archive_entry_sparse_clear.exit.i
  %.1.i = phi i32 [ 0, %archive_entry_sparse_clear.exit.i ], [ 1, %11 ], [ 1, %7 ], [ %5, %._crit_edge ], [ 0, %1 ]
  ret i32 %.1.i
}